target datalayout = "e-m:e-p270:32:32-p271:32:32-p272:64:64-i64:64-i128:128-f80:128-n8:16:32:64-S128"
target triple = "x86_64-unknown-linux-gnu"

%"class.ClipperLib::PolyTree" = type { %"class.ClipperLib::PolyNode", %"class.std::vector.0" }
%"class.ClipperLib::PolyNode" = type { ptr, %"class.std::vector", %"class.std::vector.0", ptr, i32, i8, i32, i32 }
%"class.std::vector" = type { %"struct.std::_Vector_base" }
%"struct.std::_Vector_base" = type { %"struct.std::_Vector_base<ClipperLib::IntPoint, std::allocator<ClipperLib::IntPoint>>::_Vector_impl" }
%"struct.std::_Vector_base<ClipperLib::IntPoint, std::allocator<ClipperLib::IntPoint>>::_Vector_impl" = type { %"struct.std::_Vector_base<ClipperLib::IntPoint, std::allocator<ClipperLib::IntPoint>>::_Vector_impl_data" }
%"struct.std::_Vector_base<ClipperLib::IntPoint, std::allocator<ClipperLib::IntPoint>>::_Vector_impl_data" = type { ptr, ptr, ptr }
%"class.std::vector.0" = type { %"struct.std::_Vector_base.1" }
%"struct.std::_Vector_base.1" = type { %"struct.std::_Vector_base<ClipperLib::PolyNode *, std::allocator<ClipperLib::PolyNode *>>::_Vector_impl" }
%"struct.std::_Vector_base<ClipperLib::PolyNode *, std::allocator<ClipperLib::PolyNode *>>::_Vector_impl" = type { %"struct.std::_Vector_base<ClipperLib::PolyNode *, std::allocator<ClipperLib::PolyNode *>>::_Vector_impl_data" }
%"struct.std::_Vector_base<ClipperLib::PolyNode *, std::allocator<ClipperLib::PolyNode *>>::_Vector_impl_data" = type { ptr, ptr, ptr }

; Function Attrs: mustprogress nounwind uwtable
define linkonce_odr hidden noundef nonnull align 8 dereferenceable(8) ptr @_ZNKSt6vectorIPN10ClipperLib8PolyNodeESaIS2_EEixEm(ptr noundef nonnull align 8 dereferenceable(24) %this, i64 noundef %__n) #1 comdat align 2 {
entry:
  %this.addr = alloca ptr, align 8
  %__n.addr = alloca i64, align 8
  store ptr %this, ptr %this.addr, align 8
  store i64 %__n, ptr %__n.addr, align 8
  %this1 = load ptr, ptr %this.addr, align 8
  %_M_impl = getelementptr inbounds %"struct.std::_Vector_base.1", ptr %this1, i32 0, i32 0
  %_M_start = getelementptr inbounds %"struct.std::_Vector_base<ClipperLib::PolyNode *, std::allocator<ClipperLib::PolyNode *>>::_Vector_impl_data", ptr %_M_impl, i32 0, i32 0
  %0 = load ptr, ptr %_M_start, align 8
  %1 = load i64, ptr %__n.addr, align 8
  %add.ptr = getelementptr inbounds ptr, ptr %0, i64 %1
  ret ptr %add.ptr
}

; Function Attrs: mustprogress nounwind uwtable
define linkonce_odr hidden noundef i64 @_ZNKSt6vectorIPN10ClipperLib8PolyNodeESaIS2_EE4sizeEv(ptr noundef nonnull align 8 dereferenceable(24) %this) #1 comdat align 2 {
entry:
  %this.addr = alloca ptr, align 8
  store ptr %this, ptr %this.addr, align 8
  %this1 = load ptr, ptr %this.addr, align 8
  %_M_impl = getelementptr inbounds %"struct.std::_Vector_base.1", ptr %this1, i32 0, i32 0
  %_M_finish = getelementptr inbounds %"struct.std::_Vector_base<ClipperLib::PolyNode *, std::allocator<ClipperLib::PolyNode *>>::_Vector_impl_data", ptr %_M_impl, i32 0, i32 1
  %0 = load ptr, ptr %_M_finish, align 8
  %_M_impl2 = getelementptr inbounds %"struct.std::_Vector_base.1", ptr %this1, i32 0, i32 0
  %_M_start = getelementptr inbounds %"struct.std::_Vector_base<ClipperLib::PolyNode *, std::allocator<ClipperLib::PolyNode *>>::_Vector_impl_data", ptr %_M_impl2, i32 0, i32 0
  %1 = load ptr, ptr %_M_start, align 8
  %sub.ptr.lhs.cast = ptrtoint ptr %0 to i64
  %sub.ptr.rhs.cast = ptrtoint ptr %1 to i64
  %sub.ptr.sub = sub i64 %sub.ptr.lhs.cast, %sub.ptr.rhs.cast
  %sub.ptr.div = sdiv exact i64 %sub.ptr.sub, 8
  ret i64 %sub.ptr.div
}

; Function Attrs: mustprogress nounwind uwtable
define hidden noundef i32 @_ZNK10ClipperLib8PolyTree5TotalEv(ptr noundef nonnull align 8 dereferenceable(104) %this) #1 align 2 {
entry:
  %this.addr = alloca ptr, align 8
  %result = alloca i32, align 4
  store ptr %this, ptr %this.addr, align 8
  %this1 = load ptr, ptr %this.addr, align 8
  %AllNodes = getelementptr inbounds %"class.ClipperLib::PolyTree", ptr %this1, i32 0, i32 1
  %call = call noundef i64 @_ZNKSt6vectorIPN10ClipperLib8PolyNodeESaIS2_EE4sizeEv(ptr noundef nonnull align 8 dereferenceable(24) %AllNodes) #13
  %conv = trunc i64 %call to i32
  store i32 %conv, ptr %result, align 4
  %0 = load i32, ptr %result, align 4
  %cmp = icmp sgt i32 %0, 0
  br i1 %cmp, label %land.lhs.true, label %if.end

land.lhs.true:                                    ; preds = %entry
  %Childs = getelementptr inbounds %"class.ClipperLib::PolyNode", ptr %this1, i32 0, i32 2
  %call2 = call noundef nonnull align 8 dereferenceable(8) ptr @_ZNKSt6vectorIPN10ClipperLib8PolyNodeESaIS2_EEixEm(ptr noundef nonnull align 8 dereferenceable(24) %Childs, i64 noundef 0) #13
  %1 = load ptr, ptr %call2, align 8
  %AllNodes3 = getelementptr inbounds %"class.ClipperLib::PolyTree", ptr %this1, i32 0, i32 1
  %call4 = call noundef nonnull align 8 dereferenceable(8) ptr @_ZNKSt6vectorIPN10ClipperLib8PolyNodeESaIS2_EEixEm(ptr noundef nonnull align 8 dereferenceable(24) %AllNodes3, i64 noundef 0) #13
  %2 = load ptr, ptr %call4, align 8
  %cmp5 = icmp ne ptr %1, %2
  br i1 %cmp5, label %if.then, label %if.end

if.then:                                          ; preds = %land.lhs.true
  %3 = load i32, ptr %result, align 4
  %dec = add nsw i32 %3, -1
  store i32 %dec, ptr %result, align 4
  br label %if.end

if.end:                                           ; preds = %if.then, %land.lhs.true, %entry
  %4 = load i32, ptr %result, align 4
  ret i32 %4
}