; Function Attrs: mustprogress nofree norecurse nosync nounwind willreturn memory(read, inaccessiblemem: none) uwtable
define hidden noundef i32 @_ZNK10ClipperLib8PolyTree5TotalEv(ptr nocapture noundef nonnull readonly align 8 dereferenceable(104) %this) local_unnamed_addr #1 align 2 {
entry:
  %AllNodes = getelementptr inbounds i8, ptr %this, i64 80
  %_M_finish.i = getelementptr inbounds i8, ptr %this, i64 88
  %0 = load ptr, ptr %_M_finish.i, align 8
  %1 = load ptr, ptr %AllNodes, align 8
  %sub.ptr.lhs.cast.i = ptrtoint ptr %0 to i64
  %sub.ptr.rhs.cast.i = ptrtoint ptr %1 to i64
  %sub.ptr.sub.i = sub i64 %sub.ptr.lhs.cast.i, %sub.ptr.rhs.cast.i
  %sub.ptr.div.i = lshr exact i64 %sub.ptr.sub.i, 3
  %conv = trunc i64 %sub.ptr.div.i to i32
  %cmp = icmp sgt i32 %conv, 0
  br i1 %cmp, label %land.lhs.true, label %if.end

land.lhs.true:                                    ; preds = %entry
  %Childs = getelementptr inbounds i8, ptr %this, i64 32
  %2 = load ptr, ptr %Childs, align 8
  %3 = load ptr, ptr %2, align 8
  %4 = load ptr, ptr %1, align 8
  %cmp5.not = icmp ne ptr %3, %4
  %dec = sext i1 %cmp5.not to i32
  %spec.select = add nsw i32 %dec, %conv
  br label %if.end

if.end:                                           ; preds = %land.lhs.true, %entry
  %result.0 = phi i32 [ %conv, %entry ], [ %spec.select, %land.lhs.true ]
  ret i32 %result.0
}